target datalayout = "e-m:e-p270:32:32-p271:32:32-p272:64:64-i64:64-i128:128-f80:128-n8:16:32:64-S128"
target triple = "x86_64-pc-linux-gnu"

@hf_dev_states_resp = internal global i32 0, align 4
@hf_dev_batt_level = internal global i32 0, align 4
@hf_dev_info = internal global i32 0, align 4
@ett_dev_states_resp = internal global i32 0, align 4

; Function Attrs: null_pointer_is_valid sspstrong uwtable
define internal signext i16 @dissect_dev_states(ptr noundef %0, i16 noundef signext %1, ptr noundef %2) #0 {
  %4 = alloca i16, align 2
  %5 = alloca ptr, align 8
  %6 = alloca i16, align 2
  %7 = alloca ptr, align 8
  %8 = alloca i8, align 1
  %9 = alloca ptr, align 8
  %10 = alloca ptr, align 8
  %11 = alloca i32, align 4
  store ptr %0, ptr %5, align 8
  store i16 %1, ptr %6, align 2
  store ptr %2, ptr %7, align 8
  call void @llvm.lifetime.start.p0(i64 1, ptr %8) #5
  store i8 0, ptr %8, align 1
  call void @llvm.lifetime.start.p0(i64 8, ptr %9) #5
  call void @llvm.lifetime.start.p0(i64 8, ptr %10) #5
  %12 = load ptr, ptr %7, align 8
  %13 = load i32, ptr @hf_dev_states_resp, align 4
  %14 = load ptr, ptr %5, align 8
  %15 = load i16, ptr %6, align 2
  %16 = sext i16 %15 to i32
  %17 = call ptr @proto_tree_add_item(ptr noundef %12, i32 noundef %13, ptr noundef %14, i32 noundef %16, i32 noundef 1, i32 noundef 0)
  store ptr %17, ptr %9, align 8
  %18 = load ptr, ptr %9, align 8
  %19 = load i32, ptr @ett_dev_states_resp, align 4
  %20 = call ptr @proto_item_add_subtree(ptr noundef %18, i32 noundef %19)
  store ptr %20, ptr %10, align 8
  %21 = load ptr, ptr %5, align 8
  %22 = load i16, ptr %6, align 2
  %23 = sext i16 %22 to i32
  %24 = call zeroext i8 @tvb_get_uint8(ptr noundef %21, i32 noundef %23)
  %25 = icmp ne i8 %24, 0
  br i1 %25, label %26, label %39

26:                                               ; preds = %3
  %27 = load i16, ptr %6, align 2
  %28 = add i16 %27, 1
  store i16 %28, ptr %6, align 2
  %29 = load ptr, ptr %10, align 8
  %30 = load i32, ptr @hf_dev_batt_level, align 4
  %31 = load ptr, ptr %5, align 8
  %32 = load i16, ptr %6, align 2
  %33 = sext i16 %32 to i32
  %34 = call ptr @proto_tree_add_item(ptr noundef %29, i32 noundef %30, ptr noundef %31, i32 noundef %33, i32 noundef 1, i32 noundef 0)
  %35 = load i16, ptr %6, align 2
  %36 = sext i16 %35 to i32
  %37 = add i32 %36, 1
  %38 = trunc i32 %37 to i16
  store i16 %38, ptr %4, align 2
  store i32 1, ptr %11, align 4
  br label %62

39:                                               ; preds = %3
  %40 = load i16, ptr %6, align 2
  %41 = add i16 %40, 1
  store i16 %41, ptr %6, align 2
  %42 = load ptr, ptr %5, align 8
  %43 = load i16, ptr %6, align 2
  %44 = sext i16 %43 to i32
  %45 = call zeroext i8 @tvb_get_uint8(ptr noundef %42, i32 noundef %44)
  store i8 %45, ptr %8, align 1
  %46 = load ptr, ptr %10, align 8
  %47 = load i32, ptr @hf_dev_info, align 4
  %48 = load ptr, ptr %5, align 8
  %49 = load i16, ptr %6, align 2
  %50 = sext i16 %49 to i32
  %51 = add i32 %50, 1
  %52 = load i8, ptr %8, align 1
  %53 = zext i8 %52 to i32
  %54 = call ptr @proto_tree_add_item(ptr noundef %46, i32 noundef %47, ptr noundef %48, i32 noundef %51, i32 noundef %53, i32 noundef 0)
  %55 = load i16, ptr %6, align 2
  %56 = sext i16 %55 to i32
  %57 = load i8, ptr %8, align 1
  %58 = zext i8 %57 to i32
  %59 = add i32 %56, %58
  %60 = add i32 %59, 1
  %61 = trunc i32 %60 to i16
  store i16 %61, ptr %4, align 2
  store i32 1, ptr %11, align 4
  br label %62

62:                                               ; preds = %39, %26
  call void @llvm.lifetime.end.p0(i64 8, ptr %10) #5
  call void @llvm.lifetime.end.p0(i64 8, ptr %9) #5
  call void @llvm.lifetime.end.p0(i64 1, ptr %8) #5
  %63 = load i16, ptr %4, align 2
  ret i16 %63
}