; Function Attrs: null_pointer_is_valid sspstrong uwtable
define internal signext i16 @dissect_dev_states(ptr noundef %0, i16 noundef signext %1, ptr noundef %2) #0 {
  %4 = load i32, ptr @hf_dev_states_resp, align 4
  %5 = sext i16 %1 to i32
  %6 = tail call ptr @proto_tree_add_item(ptr noundef %2, i32 noundef %4, ptr noundef %0, i32 noundef %5, i32 noundef 1, i32 noundef 0)
  %7 = load i32, ptr @ett_dev_states_resp, align 4
  %8 = tail call ptr @proto_item_add_subtree(ptr noundef %6, i32 noundef %7)
  %9 = tail call zeroext i8 @tvb_get_uint8(ptr noundef %0, i32 noundef %5)
  %.not = icmp eq i8 %9, 0
  %10 = add i16 %1, 1
  br i1 %.not, label %16, label %11

11:                                               ; preds = %3
  %12 = load i32, ptr @hf_dev_batt_level, align 4
  %13 = sext i16 %10 to i32
  %14 = tail call ptr @proto_tree_add_item(ptr noundef %8, i32 noundef %12, ptr noundef %0, i32 noundef %13, i32 noundef 1, i32 noundef 0)
  %15 = add i16 %1, 2
  br label %26

16:                                               ; preds = %3
  %17 = sext i16 %10 to i32
  %18 = tail call zeroext i8 @tvb_get_uint8(ptr noundef %0, i32 noundef %17)
  %19 = load i32, ptr @hf_dev_info, align 4
  %20 = add nsw i32 %17, 1
  %21 = zext i8 %18 to i32
  %22 = tail call ptr @proto_tree_add_item(ptr noundef %8, i32 noundef %19, ptr noundef %0, i32 noundef %20, i32 noundef %21, i32 noundef 0)
  %23 = zext i8 %18 to i16
  %24 = add i16 %1, 2
  %25 = add i16 %24, %23
  br label %26

26:                                               ; preds = %16, %11
  %.0 = phi i16 [ %15, %11 ], [ %25, %16 ]
  ret i16 %.0
}